; ModuleID = 'source-C-CXX/22/427.cpp'
source_filename = "source-C-CXX/22/427.cpp"
target datalayout = "e-m:e-p270:32:32-p271:32:32-p272:64:64-i64:64-f80:128-n8:16:32:64-S128"
target triple = "x86_64-pc-linux-gnu"

%"class.std::ios_base::Init" = type { i8 }
%"class.std::basic_ostream" = type { i32 (...)**, %"class.std::basic_ios" }
%"class.std::basic_ios" = type { %"class.std::ios_base", %"class.std::basic_ostream"*, i8, i8, %"class.std::basic_streambuf"*, %"class.std::ctype"*, %"class.std::num_put"*, %"class.std::num_get"* }
%"class.std::ios_base" = type { i32 (...)**, i64, i64, i32, i32, i32, %"struct.std::ios_base::_Callback_list"*, %"struct.std::ios_base::_Words", [8 x %"struct.std::ios_base::_Words"], i32, %"struct.std::ios_base::_Words"*, %"class.std::locale" }
%"struct.std::ios_base::_Callback_list" = type { %"struct.std::ios_base::_Callback_list"*, void (i32, %"class.std::ios_base"*, i32)*, i32, i32 }
%"struct.std::ios_base::_Words" = type { i8*, i64 }
%"class.std::locale" = type { %"class.std::locale::_Impl"* }
%"class.std::locale::_Impl" = type { i32, %"class.std::locale::facet"**, i64, %"class.std::locale::facet"**, i8** }
%"class.std::locale::facet" = type <{ i32 (...)**, i32, [4 x i8] }>
%"class.std::basic_streambuf" = type { i32 (...)**, i8*, i8*, i8*, i8*, i8*, i8*, %"class.std::locale" }
%"class.std::ctype" = type <{ %"class.std::locale::facet.base", [4 x i8], %struct.__locale_struct*, i8, [7 x i8], i32*, i32*, i16*, i8, [256 x i8], [256 x i8], i8, [6 x i8] }>
%"class.std::locale::facet.base" = type <{ i32 (...)**, i32 }>
%struct.__locale_struct = type { [13 x %struct.__locale_data*], i16*, i32*, i32*, [13 x i8*] }
%struct.__locale_data = type opaque
%"class.std::num_put" = type { %"class.std::locale::facet.base", [4 x i8] }
%"class.std::num_get" = type { %"class.std::locale::facet.base", [4 x i8] }
%struct._IO_FILE = type { i32, i8*, i8*, i8*, i8*, i8*, i8*, i8*, i8*, i8*, i8*, i8*, %struct._IO_marker*, %struct._IO_FILE*, i32, i32, i64, i16, i8, [1 x i8], i8*, i64, %struct._IO_codecvt*, %struct._IO_wide_data*, %struct._IO_FILE*, i8*, i64, i32, [20 x i8] }
%struct._IO_marker = type opaque
%struct._IO_codecvt = type opaque
%struct._IO_wide_data = type opaque

@_ZStL8__ioinit = internal global %"class.std::ios_base::Init" zeroinitializer, align 1
@__dso_handle = external hidden global i8
@_ZSt4cout = external global %"class.std::basic_ostream", align 8
@.str = private unnamed_addr constant [2 x i8] c" \00", align 1
@stdin = external local_unnamed_addr global %struct._IO_FILE*, align 8
@llvm.global_ctors = appending global [1 x { i32, void ()*, i8* }] [{ i32, void ()*, i8* } { i32 65535, void ()* @_GLOBAL__sub_I_427.cpp, i8* null }]

declare void @_ZNSt8ios_base4InitC1Ev(%"class.std::ios_base::Init"* nonnull align 1 dereferenceable(1)) unnamed_addr #0

; Function Attrs: nounwind
declare void @_ZNSt8ios_base4InitD1Ev(%"class.std::ios_base::Init"* nonnull align 1 dereferenceable(1)) unnamed_addr #1

; Function Attrs: nofree nounwind
declare i32 @__cxa_atexit(void (i8*)*, i8*, i8*) local_unnamed_addr #2

; Function Attrs: mustprogress norecurse sspstrong uwtable
define dso_local i32 @main() local_unnamed_addr #3 {
  %1 = alloca i8, align 1
  %2 = alloca i8, align 1
  %3 = alloca [101 x i8], align 16
  %4 = getelementptr inbounds [101 x i8], [101 x i8]* %3, i64 0, i64 0
  call void @llvm.lifetime.start.p0i8(i64 101, i8* nonnull %4) #7
  br label %5

5:                                                ; preds = %5, %0
  %6 = phi i64 [ %13, %5 ], [ 1, %0 ]
  %7 = load %struct._IO_FILE*, %struct._IO_FILE** @stdin, align 8, !tbaa !5
  %8 = tail call i32 @getc(%struct._IO_FILE* %7)
  %9 = trunc i32 %8 to i8
  %10 = getelementptr inbounds [101 x i8], [101 x i8]* %3, i64 0, i64 %6
  store i8 %9, i8* %10, align 1, !tbaa !9
  %11 = and i32 %8, 255
  %12 = icmp eq i32 %11, 10
  %13 = add nuw i64 %6, 1
  br i1 %12, label %14, label %5, !llvm.loop !10

14:                                               ; preds = %5
  %15 = trunc i64 %6 to i32
  %16 = add i32 %15, -2
  %17 = icmp ugt i32 %15, 2
  br i1 %17, label %18, label %66

18:                                               ; preds = %14
  %19 = add nsw i32 %15, -1
  %20 = sext i32 %16 to i64
  %21 = zext i32 %16 to i64
  br label %22

22:                                               ; preds = %18, %59
  %23 = phi i64 [ %21, %18 ], [ %65, %59 ]
  %24 = phi i64 [ %20, %18 ], [ %64, %59 ]
  %25 = phi i32 [ %19, %18 ], [ %60, %59 ]
  %26 = phi i32 [ %16, %18 ], [ %61, %59 ]
  %27 = getelementptr inbounds [101 x i8], [101 x i8]* %3, i64 0, i64 %23
  %28 = load i8, i8* %27, align 1, !tbaa !9
  %29 = icmp eq i8 %28, 32
  br i1 %29, label %30, label %45

30:                                               ; preds = %22
  %31 = trunc i64 %23 to i32
  %32 = icmp sgt i32 %25, %31
  br i1 %32, label %33, label %42

33:                                               ; preds = %30
  %34 = sext i32 %25 to i64
  br label %35

35:                                               ; preds = %33, %35
  %36 = phi i64 [ %24, %33 ], [ %37, %35 ]
  %37 = add nsw i64 %36, 1
  %38 = getelementptr inbounds [101 x i8], [101 x i8]* %3, i64 0, i64 %37
  %39 = load i8, i8* %38, align 1, !tbaa !9
  call void @llvm.lifetime.start.p0i8(i64 1, i8* nonnull %2)
  store i8 %39, i8* %2, align 1, !tbaa !9
  %40 = call nonnull align 8 dereferenceable(8) %"class.std::basic_ostream"* @_ZSt16__ostream_insertIcSt11char_traitsIcEERSt13basic_ostreamIT_T0_ES6_PKS3_l(%"class.std::basic_ostream"* nonnull align 8 dereferenceable(8) @_ZSt4cout, i8* nonnull %2, i64 1)
  call void @llvm.lifetime.end.p0i8(i64 1, i8* nonnull %2)
  %41 = icmp slt i64 %37, %34
  br i1 %41, label %35, label %42, !llvm.loop !12

42:                                               ; preds = %35, %30
  %43 = call nonnull align 8 dereferenceable(8) %"class.std::basic_ostream"* @_ZSt16__ostream_insertIcSt11char_traitsIcEERSt13basic_ostreamIT_T0_ES6_PKS3_l(%"class.std::basic_ostream"* nonnull align 8 dereferenceable(8) @_ZSt4cout, i8* nonnull getelementptr inbounds ([2 x i8], [2 x i8]* @.str, i64 0, i64 0), i64 1)
  %44 = add nsw i32 %26, -1
  br label %59

45:                                               ; preds = %22
  %46 = icmp ne i64 %23, 1
  %47 = icmp slt i32 %25, 1
  %48 = select i1 %46, i1 true, i1 %47
  br i1 %48, label %59, label %49

49:                                               ; preds = %45
  %50 = add nuw i32 %25, 1
  %51 = zext i32 %50 to i64
  br label %52

52:                                               ; preds = %49, %52
  %53 = phi i64 [ 1, %49 ], [ %57, %52 ]
  %54 = getelementptr inbounds [101 x i8], [101 x i8]* %3, i64 0, i64 %53
  %55 = load i8, i8* %54, align 1, !tbaa !9
  call void @llvm.lifetime.start.p0i8(i64 1, i8* nonnull %1)
  store i8 %55, i8* %1, align 1, !tbaa !9
  %56 = call nonnull align 8 dereferenceable(8) %"class.std::basic_ostream"* @_ZSt16__ostream_insertIcSt11char_traitsIcEERSt13basic_ostreamIT_T0_ES6_PKS3_l(%"class.std::basic_ostream"* nonnull align 8 dereferenceable(8) @_ZSt4cout, i8* nonnull %1, i64 1)
  call void @llvm.lifetime.end.p0i8(i64 1, i8* nonnull %1)
  %57 = add nuw nsw i64 %53, 1
  %58 = icmp eq i64 %57, %51
  br i1 %58, label %59, label %52, !llvm.loop !13

59:                                               ; preds = %52, %42, %45
  %60 = phi i32 [ %44, %42 ], [ %25, %45 ], [ %25, %52 ]
  %61 = add nsw i32 %26, -1
  %62 = trunc i64 %23 to i32
  %63 = icmp sgt i32 %62, 1
  %64 = add nsw i64 %24, -1
  %65 = add nsw i64 %23, -1
  br i1 %63, label %22, label %66, !llvm.loop !14

66:                                               ; preds = %59, %14
  call void @llvm.lifetime.end.p0i8(i64 101, i8* nonnull %4) #7
  ret i32 0
}

; Function Attrs: argmemonly mustprogress nofree nosync nounwind willreturn
declare void @llvm.lifetime.start.p0i8(i64 immarg, i8* nocapture) #4

; Function Attrs: argmemonly mustprogress nofree nosync nounwind willreturn
declare void @llvm.lifetime.end.p0i8(i64 immarg, i8* nocapture) #4

; Function Attrs: nofree nounwind
declare noundef i32 @getc(%struct._IO_FILE* nocapture noundef) local_unnamed_addr #5

declare nonnull align 8 dereferenceable(8) %"class.std::basic_ostream"* @_ZSt16__ostream_insertIcSt11char_traitsIcEERSt13basic_ostreamIT_T0_ES6_PKS3_l(%"class.std::basic_ostream"* nonnull align 8 dereferenceable(8), i8*, i64) local_unnamed_addr #0

; Function Attrs: sspstrong uwtable
define internal void @_GLOBAL__sub_I_427.cpp() #6 section ".text.startup" {
  tail call void @_ZNSt8ios_base4InitC1Ev(%"class.std::ios_base::Init"* nonnull align 1 dereferenceable(1) @_ZStL8__ioinit)
  %1 = tail call i32 @__cxa_atexit(void (i8*)* bitcast (void (%"class.std::ios_base::Init"*)* @_ZNSt8ios_base4InitD1Ev to void (i8*)*), i8* getelementptr inbounds (%"class.std::ios_base::Init", %"class.std::ios_base::Init"* @_ZStL8__ioinit, i64 0, i32 0), i8* nonnull @__dso_handle) #7
  ret void
}


!llvm.module.flags = !{!0, !1, !2, !3}
!llvm.ident = !{!4}

!0 = !{i32 1, !"wchar_size", i32 4}
!1 = !{i32 7, !"PIC Level", i32 2}
!2 = !{i32 7, !"PIE Level", i32 2}
!3 = !{i32 7, !"uwtable", i32 1}
!4 = !{!"clang version 13.0.0"}
!5 = !{!6, !6, i64 0}
!6 = !{!"any pointer", !7, i64 0}
!7 = !{!"omnipotent char", !8, i64 0}
!8 = !{!"Simple C++ TBAA"}
!9 = !{!7, !7, i64 0}
!10 = distinct !{!10, !11}
!11 = !{!"llvm.loop.mustprogress"}
!12 = distinct !{!12, !11}
!13 = distinct !{!13, !11}
!14 = distinct !{!14, !11}
